; Function Attrs: mustprogress uwtable
define hidden void @_ZN13bool_rewriter7mk_nandEjPKP4exprR7obj_refIS0_11ast_managerE(ptr noundef nonnull align 8 dereferenceable(72) %this, i32 noundef %num_args, ptr noundef %args, ptr noundef nonnull align 8 dereferenceable(16) %result) local_unnamed_addr #3 align 2 personality ptr @__gxx_personality_v0 {
entry:
  %tmp = alloca %class.obj_ref, align 8
  %0 = load ptr, ptr %this, align 8
  store ptr null, ptr %tmp, align 8
  %m_manager.i = getelementptr inbounds i8, ptr %tmp, i64 8
  store ptr %0, ptr %m_manager.i, align 8
  invoke void @_ZN13bool_rewriter6mk_andEjPKP4exprR7obj_refIS0_11ast_managerE(ptr noundef nonnull align 8 dereferenceable(72) %this, i32 noundef %num_args, ptr noundef %args, ptr noundef nonnull align 8 dereferenceable(16) %tmp)
          to label %invoke.cont unwind label %lpad

invoke.cont:                                      ; preds = %entry
  %1 = load ptr, ptr %tmp, align 8
  %call.i1 = invoke noundef i32 @_ZN13bool_rewriter11mk_not_coreEP4exprR7obj_refIS0_11ast_managerE(ptr noundef nonnull align 8 dereferenceable(72) %this, ptr noundef %1, ptr noundef nonnull align 8 dereferenceable(16) %result) #18
          to label %call.i.noexc unwind label %lpad

call.i.noexc:                                     ; preds = %invoke.cont
  %cmp.i = icmp eq i32 %call.i1, 5
  br i1 %cmp.i, label %if.then.i, label %invoke.cont3

if.then.i:                                        ; preds = %call.i.noexc
  %2 = load ptr, ptr %this, align 8
  %call.i.i2 = invoke noundef ptr @_ZN11ast_manager6mk_appEiiP4expr(ptr noundef nonnull align 8 dereferenceable(976) %2, i32 noundef 0, i32 noundef 8, ptr noundef %1)
          to label %call.i.i.noexc unwind label %lpad

call.i.i.noexc:                                   ; preds = %if.then.i
  %tobool.not.i.i = icmp eq ptr %call.i.i2, null
  br i1 %tobool.not.i.i, label %if.end.i.i, label %_ZN11ast_manager7inc_refEP3ast.exit.i.i

_ZN11ast_manager7inc_refEP3ast.exit.i.i:          ; preds = %call.i.i.noexc
  %m_ref_count.i.i.i.i = getelementptr inbounds i8, ptr %call.i.i2, i64 8
  %3 = load i32, ptr %m_ref_count.i.i.i.i, align 4
  %inc.i.i.i.i = add i32 %3, 1
  store i32 %inc.i.i.i.i, ptr %m_ref_count.i.i.i.i, align 4
  br label %if.end.i.i

if.end.i.i:                                       ; preds = %_ZN11ast_manager7inc_refEP3ast.exit.i.i, %call.i.i.noexc
  %4 = load ptr, ptr %result, align 8
  %tobool.not.i3.i.i = icmp eq ptr %4, null
  br i1 %tobool.not.i3.i.i, label %_ZN7obj_refI4expr11ast_managerEaSEPS0_.exit.i, label %if.then.i.i.i.i

if.then.i.i.i.i:                                  ; preds = %if.end.i.i
  %m_manager.i.i.i = getelementptr inbounds i8, ptr %result, i64 8
  %5 = load ptr, ptr %m_manager.i.i.i, align 8
  %m_ref_count.i.i.i.i.i = getelementptr inbounds i8, ptr %4, i64 8
  %6 = load i32, ptr %m_ref_count.i.i.i.i.i, align 4
  %dec.i.i.i.i.i = add i32 %6, -1
  store i32 %dec.i.i.i.i.i, ptr %m_ref_count.i.i.i.i.i, align 4
  %cmp.i.i.i.i = icmp eq i32 %dec.i.i.i.i.i, 0
  br i1 %cmp.i.i.i.i, label %if.then2.i.i.i.i, label %_ZN7obj_refI4expr11ast_managerEaSEPS0_.exit.i

if.then2.i.i.i.i:                                 ; preds = %if.then.i.i.i.i
  invoke void @_ZN11ast_manager11delete_nodeEP3ast(ptr noundef nonnull align 8 dereferenceable(976) %5, ptr noundef nonnull %4)
          to label %_ZN7obj_refI4expr11ast_managerEaSEPS0_.exit.i unwind label %lpad

_ZN7obj_refI4expr11ast_managerEaSEPS0_.exit.i:    ; preds = %if.then2.i.i.i.i, %if.then.i.i.i.i, %if.end.i.i
  store ptr %call.i.i2, ptr %result, align 8
  br label %invoke.cont3

invoke.cont3:                                     ; preds = %_ZN7obj_refI4expr11ast_managerEaSEPS0_.exit.i, %call.i.noexc
  %7 = load ptr, ptr %tmp, align 8
  %tobool.not.i.i3 = icmp eq ptr %7, null
  br i1 %tobool.not.i.i3, label %_ZN7obj_refI4expr11ast_managerED2Ev.exit, label %if.then.i.i.i

if.then.i.i.i:                                    ; preds = %invoke.cont3
  %8 = load ptr, ptr %m_manager.i, align 8
  %m_ref_count.i.i.i.i4 = getelementptr inbounds i8, ptr %7, i64 8
  %9 = load i32, ptr %m_ref_count.i.i.i.i4, align 4
  %dec.i.i.i.i = add i32 %9, -1
  store i32 %dec.i.i.i.i, ptr %m_ref_count.i.i.i.i4, align 4
  %cmp.i.i.i = icmp eq i32 %dec.i.i.i.i, 0
  br i1 %cmp.i.i.i, label %if.then2.i.i.i, label %_ZN7obj_refI4expr11ast_managerED2Ev.exit

if.then2.i.i.i:                                   ; preds = %if.then.i.i.i
  invoke void @_ZN11ast_manager11delete_nodeEP3ast(ptr noundef nonnull align 8 dereferenceable(976) %8, ptr noundef nonnull %7)
          to label %_ZN7obj_refI4expr11ast_managerED2Ev.exit unwind label %terminate.lpad.i

terminate.lpad.i:                                 ; preds = %if.then2.i.i.i
  %10 = landingpad { ptr, i32 }
          catch ptr null
  %11 = extractvalue { ptr, i32 } %10, 0
  call void @__clang_call_terminate(ptr %11) #17
  unreachable

_ZN7obj_refI4expr11ast_managerED2Ev.exit:         ; preds = %invoke.cont3, %if.then.i.i.i, %if.then2.i.i.i
  ret void

lpad:                                             ; preds = %if.then2.i.i.i.i, %if.then.i, %invoke.cont, %entry
  %12 = landingpad { ptr, i32 }
          cleanup
  call void @_ZN7obj_refI4expr11ast_managerED2Ev(ptr noundef nonnull align 8 dereferenceable(16) %tmp) #16
  resume { ptr, i32 } %12
}